target datalayout = "e-m:e-p270:32:32-p271:32:32-p272:64:64-i64:64-i128:128-f80:128-n8:16:32:64-S128"
target triple = "x86_64-pc-linux-gnu"

%"class.llvm::SDValue" = type <{ ptr, i32, [4 x i8] }>
%"class.llvm::DebugLoc" = type { %"class.llvm::TypedTrackingMDRef" }
%"class.llvm::TypedTrackingMDRef" = type { %"class.llvm::TrackingMDRef" }
%"class.llvm::TrackingMDRef" = type { ptr }
%"struct.llvm::SDNodeFlags" = type { i16 }
%"class.llvm::ilist_node_base" = type { %"class.llvm::ilist_detail::node_base_prevnext" }
%"class.llvm::ilist_detail::node_base_prevnext" = type { ptr, ptr }
%"class.llvm::SDNode" = type { %"class.llvm::FoldingSetBase::Node", %"class.llvm::ilist_node", i32, %"struct.llvm::SDNodeFlags", %union.anon.280, i16, i32, ptr, ptr, ptr, i16, i16, i32, %"class.llvm::DebugLoc", i32, i32 }
%"class.llvm::FoldingSetBase::Node" = type { ptr }
%"class.llvm::ilist_node" = type { %"class.llvm::ilist_node_impl.278" }
%"class.llvm::ilist_node_impl.278" = type { %"class.llvm::ilist_node_base" }
%union.anon.280 = type { %"class.llvm::SDNode::LSBaseSDNodeBitfields" }
%"class.llvm::SDNode::LSBaseSDNodeBitfields" = type { i16 }
%"class.llvm::SDUse" = type { %"class.llvm::SDValue", ptr, ptr, ptr }

; Function Attrs: mustprogress nounwind uwtable
define linkonce_odr hidden noundef nonnull align 8 dereferenceable(12) ptr @_ZNK4llvm5SDUsecvRKNS_7SDValueEEv(ptr noundef nonnull align 8 dereferenceable(40) %0) #0 comdat align 2 {
  %2 = alloca ptr, align 8
  store ptr %0, ptr %2, align 8
  %3 = load ptr, ptr %2, align 8
  %4 = getelementptr inbounds nuw %"class.llvm::SDUse", ptr %3, i32 0, i32 0
  ret ptr %4
}

; Function Attrs: mustprogress nounwind uwtable
define linkonce_odr hidden noundef nonnull align 8 dereferenceable(12) ptr @_ZNK4llvm6SDNode10getOperandEj(ptr noundef nonnull align 8 dereferenceable(88) %0, i32 noundef %1) #0 comdat align 2 {
  %3 = alloca ptr, align 8
  %4 = alloca i32, align 4
  store ptr %0, ptr %3, align 8
  store i32 %1, ptr %4, align 4
  %5 = load ptr, ptr %3, align 8
  %6 = getelementptr inbounds nuw %"class.llvm::SDNode", ptr %5, i32 0, i32 7
  %7 = load ptr, ptr %6, align 8
  %8 = load i32, ptr %4, align 4
  %9 = zext i32 %8 to i64
  %10 = getelementptr inbounds %"class.llvm::SDUse", ptr %7, i64 %9
  %11 = call noundef nonnull align 8 dereferenceable(12) ptr @_ZNK4llvm5SDUsecvRKNS_7SDValueEEv(ptr noundef nonnull align 8 dereferenceable(40) %10)
  ret ptr %11
}

; Function Attrs: mustprogress nounwind uwtable
define linkonce_odr hidden noundef i32 @_ZNK4llvm6SDNode9getOpcodeEv(ptr noundef nonnull align 8 dereferenceable(88) %0) #0 comdat align 2 {
  %2 = alloca ptr, align 8
  store ptr %0, ptr %2, align 8
  %3 = load ptr, ptr %2, align 8
  %4 = getelementptr inbounds nuw %"class.llvm::SDNode", ptr %3, i32 0, i32 2
  %5 = load i32, ptr %4, align 8
  ret i32 %5
}

; Function Attrs: mustprogress nounwind uwtable
define linkonce_odr hidden noundef ptr @_ZNK4llvm7SDValueptEv(ptr noundef nonnull align 8 dereferenceable(12) %0) #0 comdat align 2 {
  %2 = alloca ptr, align 8
  store ptr %0, ptr %2, align 8
  %3 = load ptr, ptr %2, align 8
  %4 = getelementptr inbounds nuw %"class.llvm::SDValue", ptr %3, i32 0, i32 0
  %5 = load ptr, ptr %4, align 8
  ret ptr %5
}

; Function Attrs: mustprogress nounwind uwtable
define internal noundef zeroext i1 @_ZN12_GLOBAL__N_119AArch64DAGToDAGISel20SelectDupZeroOrUndefEN4llvm7SDValueE(ptr noundef nonnull align 8 dereferenceable(280) %0, ptr %1, i32 %2) #0 align 2 {
  %4 = alloca i1, align 1
  %5 = alloca %"class.llvm::SDValue", align 8
  %6 = alloca ptr, align 8
  %7 = alloca %"class.llvm::SDValue", align 8
  %8 = alloca %"class.llvm::SDValue", align 8
  %9 = alloca %"class.llvm::SDValue", align 8
  %10 = getelementptr inbounds nuw { ptr, i32 }, ptr %5, i32 0, i32 0
  store ptr %1, ptr %10, align 8
  %11 = getelementptr inbounds nuw { ptr, i32 }, ptr %5, i32 0, i32 1
  store i32 %2, ptr %11, align 8
  store ptr %0, ptr %6, align 8
  %12 = call noundef ptr @_ZNK4llvm7SDValueptEv(ptr noundef nonnull align 8 dereferenceable(12) %5)
  %13 = call noundef i32 @_ZNK4llvm6SDNode9getOpcodeEv(ptr noundef nonnull align 8 dereferenceable(88) %12)
  switch i32 %13, label %32 [
    i32 51, label %14
    i32 583, label %15
    i32 167, label %15
  ]

14:                                               ; preds = %3
  store i1 true, ptr %4, align 1
  br label %34

15:                                               ; preds = %3, %3
  %16 = call noundef ptr @_ZNK4llvm7SDValueptEv(ptr noundef nonnull align 8 dereferenceable(12) %5)
  %17 = call noundef nonnull align 8 dereferenceable(12) ptr @_ZNK4llvm6SDNode10getOperandEj(ptr noundef nonnull align 8 dereferenceable(88) %16, i32 noundef 0)
  call void @llvm.memcpy.p0.p0.i64(ptr align 8 %7, ptr align 8 %17, i64 16, i1 false)
  call void @llvm.memcpy.p0.p0.i64(ptr align 8 %8, ptr align 8 %7, i64 16, i1 false)
  %18 = getelementptr inbounds nuw { ptr, i32 }, ptr %8, i32 0, i32 0
  %19 = load ptr, ptr %18, align 8
  %20 = getelementptr inbounds nuw { ptr, i32 }, ptr %8, i32 0, i32 1
  %21 = load i32, ptr %20, align 8
  %22 = call noundef zeroext i1 @_ZN4llvm14isNullConstantENS_7SDValueE(ptr %19, i32 %21)
  br i1 %22, label %23, label %24

23:                                               ; preds = %15
  store i1 true, ptr %4, align 1
  br label %34

24:                                               ; preds = %15
  call void @llvm.memcpy.p0.p0.i64(ptr align 8 %9, ptr align 8 %7, i64 16, i1 false)
  %25 = getelementptr inbounds nuw { ptr, i32 }, ptr %9, i32 0, i32 0
  %26 = load ptr, ptr %25, align 8
  %27 = getelementptr inbounds nuw { ptr, i32 }, ptr %9, i32 0, i32 1
  %28 = load i32, ptr %27, align 8
  %29 = call noundef zeroext i1 @_ZN4llvm16isNullFPConstantENS_7SDValueE(ptr %26, i32 %28)
  br i1 %29, label %30, label %31

30:                                               ; preds = %24
  store i1 true, ptr %4, align 1
  br label %34

31:                                               ; preds = %24
  br label %33

32:                                               ; preds = %3
  br label %33

33:                                               ; preds = %32, %31
  store i1 false, ptr %4, align 1
  br label %34

34:                                               ; preds = %33, %30, %23, %14
  %35 = load i1, ptr %4, align 1
  ret i1 %35
}