; Function Attrs: mustprogress nounwind uwtable
define internal fastcc noundef zeroext i1 @_ZN12_GLOBAL__N_119AArch64DAGToDAGISel20SelectDupZeroOrUndefEN4llvm7SDValueE(ptr nocapture readonly %0) unnamed_addr #0 align 2 {
  %2 = getelementptr inbounds nuw i8, ptr %0, i64 24
  %3 = load i32, ptr %2, align 8
  switch i32 %3, label %10 [
    i32 51, label %11
    i32 583, label %4
    i32 167, label %4
  ]

4:                                                ; preds = %1, %1
  %5 = getelementptr inbounds nuw i8, ptr %0, i64 40
  %6 = load ptr, ptr %5, align 8
  %.sroa.04.0.copyload = load ptr, ptr %6, align 8
  %.sroa.35.0..sroa_idx = getelementptr inbounds i8, ptr %6, i64 8
  %.sroa.35.0.copyload = load i32, ptr %.sroa.35.0..sroa_idx, align 8
  %7 = tail call noundef zeroext i1 @_ZN4llvm14isNullConstantENS_7SDValueE(ptr %.sroa.04.0.copyload, i32 %.sroa.35.0.copyload) #22
  br i1 %7, label %11, label %8

8:                                                ; preds = %4
  %9 = tail call noundef zeroext i1 @_ZN4llvm16isNullFPConstantENS_7SDValueE(ptr %.sroa.04.0.copyload, i32 %.sroa.35.0.copyload) #22
  br i1 %9, label %11, label %10

10:                                               ; preds = %1, %8
  br label %11

11:                                               ; preds = %8, %4, %1, %10
  %.0 = phi i1 [ false, %10 ], [ true, %1 ], [ true, %4 ], [ true, %8 ]
  ret i1 %.0
}